; Function Attrs: mustprogress nofree norecurse nosync nounwind willreturn memory(read, inaccessiblemem: none) uwtable
define noundef i64 @_ZNK10open_spiel5oware10OwareBoard9HashValueEv(ptr nocapture noundef nonnull readonly align 8 dereferenceable(56) %0) local_unnamed_addr #6 align 2 {
  %2 = load i32, ptr %0, align 8
  %3 = sext i32 %2 to i64
  %4 = getelementptr inbounds nuw i8, ptr %0, i64 8
  %5 = load ptr, ptr %4, align 8
  %6 = getelementptr inbounds i8, ptr %0, i64 16
  %7 = load ptr, ptr %6, align 8
  %.not21 = icmp eq ptr %5, %7
  br i1 %.not21, label %._crit_edge, label %.lr.ph

.lr.ph:                                           ; preds = %1, %.lr.ph
  %.023 = phi i64 [ %15, %.lr.ph ], [ %3, %1 ]
  %.sroa.017.022 = phi ptr [ %16, %.lr.ph ], [ %5, %1 ]
  %8 = load i32, ptr %.sroa.017.022, align 4
  %9 = sext i32 %8 to i64
  %10 = shl i64 %.023, 6
  %11 = lshr i64 %.023, 2
  %12 = add i64 %10, 2654435769
  %13 = add i64 %12, %11
  %14 = add i64 %13, %9
  %15 = xor i64 %14, %.023
  %16 = getelementptr inbounds i8, ptr %.sroa.017.022, i64 4
  %.not = icmp eq ptr %16, %7
  br i1 %.not, label %._crit_edge, label %.lr.ph

._crit_edge:                                      ; preds = %.lr.ph, %1
  %.0.lcssa = phi i64 [ %3, %1 ], [ %15, %.lr.ph ]
  %17 = getelementptr inbounds nuw i8, ptr %0, i64 32
  %18 = load ptr, ptr %17, align 8
  %19 = getelementptr inbounds i8, ptr %0, i64 40
  %20 = load ptr, ptr %19, align 8
  %.not2024 = icmp eq ptr %18, %20
  br i1 %.not2024, label %._crit_edge29, label %.lr.ph28

.lr.ph28:                                         ; preds = %._crit_edge, %.lr.ph28
  %.126 = phi i64 [ %28, %.lr.ph28 ], [ %.0.lcssa, %._crit_edge ]
  %.sroa.013.025 = phi ptr [ %29, %.lr.ph28 ], [ %18, %._crit_edge ]
  %21 = load i32, ptr %.sroa.013.025, align 4
  %22 = sext i32 %21 to i64
  %23 = shl i64 %.126, 6
  %24 = lshr i64 %.126, 2
  %25 = add i64 %23, 2654435769
  %26 = add i64 %25, %24
  %27 = add i64 %26, %22
  %28 = xor i64 %27, %.126
  %29 = getelementptr inbounds i8, ptr %.sroa.013.025, i64 4
  %.not20 = icmp eq ptr %29, %20
  br i1 %.not20, label %._crit_edge29, label %.lr.ph28

._crit_edge29:                                    ; preds = %.lr.ph28, %._crit_edge
  %.1.lcssa = phi i64 [ %.0.lcssa, %._crit_edge ], [ %28, %.lr.ph28 ]
  ret i64 %.1.lcssa
}